target datalayout = "e-m:e-p270:32:32-p271:32:32-p272:64:64-i64:64-i128:128-f80:128-n8:16:32:64-S128"
target triple = "x86_64-pc-linux-gnu"

%struct.prov_cipher_ctx_st = type { [16 x i8], [16 x i8], [16 x i8], ptr, %union.anon, i32, i64, i64, i64, i64, i32, i8, i32, ptr, i32, i64, i32, i64, i32, ptr, ptr, ptr }
%union.anon = type { ptr }
%struct.PROV_CHACHA20_CTX = type { %struct.prov_cipher_ctx_st, %union.anon.0, [4 x i32], [64 x i8], i32 }
%union.anon.0 = type { double, [24 x i8] }

@.str.1 = private unnamed_addr constant [63 x i8] c"../openssl/providers/implementations/ciphers/cipher_chacha20.c\00", align 1

; Function Attrs: nounwind uwtable
define internal ptr @chacha20_dupctx(ptr noundef %0) #0 {
  %2 = alloca ptr, align 8
  %3 = alloca ptr, align 8
  %4 = alloca ptr, align 8
  store ptr %0, ptr %2, align 8, !tbaa !3
  call void @llvm.lifetime.start.p0(i64 8, ptr %3) #4
  %5 = load ptr, ptr %2, align 8, !tbaa !3
  store ptr %5, ptr %3, align 8, !tbaa !3
  call void @llvm.lifetime.start.p0(i64 8, ptr %4) #4
  store ptr null, ptr %4, align 8, !tbaa !3
  %6 = load ptr, ptr %3, align 8, !tbaa !3
  %7 = icmp ne ptr %6, null
  br i1 %7, label %8, label %47

8:                                                ; preds = %1
  %9 = load ptr, ptr %3, align 8, !tbaa !3
  %10 = call noalias ptr @CRYPTO_memdup(ptr noundef %9, i64 noundef 312, ptr noundef @.str.1, i32 noundef 74)
  store ptr %10, ptr %4, align 8, !tbaa !3
  %11 = load ptr, ptr %4, align 8, !tbaa !3
  %12 = icmp ne ptr %11, null
  br i1 %12, label %13, label %46

13:                                               ; preds = %8
  %14 = load ptr, ptr %4, align 8, !tbaa !3
  %15 = getelementptr inbounds nuw %struct.PROV_CHACHA20_CTX, ptr %14, i32 0, i32 0
  %16 = getelementptr inbounds nuw %struct.prov_cipher_ctx_st, ptr %15, i32 0, i32 13
  %17 = load ptr, ptr %16, align 8, !tbaa !26
  %18 = icmp ne ptr %17, null
  br i1 %18, label %19, label %46

19:                                               ; preds = %13
  %20 = load ptr, ptr %4, align 8, !tbaa !3
  %21 = getelementptr inbounds nuw %struct.PROV_CHACHA20_CTX, ptr %20, i32 0, i32 0
  %22 = getelementptr inbounds nuw %struct.prov_cipher_ctx_st, ptr %21, i32 0, i32 14
  %23 = load i32, ptr %22, align 8, !tbaa !28
  %24 = icmp ne i32 %23, 0
  br i1 %24, label %25, label %46

25:                                               ; preds = %19
  %26 = load ptr, ptr %4, align 8, !tbaa !3
  %27 = getelementptr inbounds nuw %struct.PROV_CHACHA20_CTX, ptr %26, i32 0, i32 0
  %28 = getelementptr inbounds nuw %struct.prov_cipher_ctx_st, ptr %27, i32 0, i32 13
  %29 = load ptr, ptr %28, align 8, !tbaa !26
  %30 = load ptr, ptr %4, align 8, !tbaa !3
  %31 = getelementptr inbounds nuw %struct.PROV_CHACHA20_CTX, ptr %30, i32 0, i32 0
  %32 = getelementptr inbounds nuw %struct.prov_cipher_ctx_st, ptr %31, i32 0, i32 15
  %33 = load i64, ptr %32, align 8, !tbaa !29
  %34 = call noalias ptr @CRYPTO_memdup(ptr noundef %29, i64 noundef %33, ptr noundef @.str.1, i32 noundef 77)
  %35 = load ptr, ptr %4, align 8, !tbaa !3
  %36 = getelementptr inbounds nuw %struct.PROV_CHACHA20_CTX, ptr %35, i32 0, i32 0
  %37 = getelementptr inbounds nuw %struct.prov_cipher_ctx_st, ptr %36, i32 0, i32 13
  store ptr %34, ptr %37, align 8, !tbaa !26
  %38 = load ptr, ptr %4, align 8, !tbaa !3
  %39 = getelementptr inbounds nuw %struct.PROV_CHACHA20_CTX, ptr %38, i32 0, i32 0
  %40 = getelementptr inbounds nuw %struct.prov_cipher_ctx_st, ptr %39, i32 0, i32 13
  %41 = load ptr, ptr %40, align 8, !tbaa !26
  %42 = icmp eq ptr %41, null
  br i1 %42, label %43, label %45

43:                                               ; preds = %25
  %44 = load ptr, ptr %4, align 8, !tbaa !3
  call void @CRYPTO_free(ptr noundef %44, ptr noundef @.str.1, i32 noundef 79)
  store ptr null, ptr %4, align 8, !tbaa !3
  br label %45

45:                                               ; preds = %43, %25
  br label %46

46:                                               ; preds = %45, %19, %13, %8
  br label %47

47:                                               ; preds = %46, %1
  %48 = load ptr, ptr %4, align 8, !tbaa !3
  call void @llvm.lifetime.end.p0(i64 8, ptr %4) #4
  call void @llvm.lifetime.end.p0(i64 8, ptr %3) #4
  ret ptr %48
}