; Function Attrs: nounwind uwtable
define internal ptr @chacha20_dupctx(ptr noundef %0) #0 {
  %.not = icmp eq ptr %0, null
  br i1 %.not, label %16, label %2

2:                                                ; preds = %1
  %3 = tail call noalias ptr @CRYPTO_memdup(ptr noundef nonnull %0, i64 noundef 312, ptr noundef nonnull @.str.1, i32 noundef 74) #4
  %.not15 = icmp eq ptr %3, null
  br i1 %.not15, label %16, label %4

4:                                                ; preds = %2
  %5 = getelementptr inbounds nuw i8, ptr %3, i64 120
  %6 = load ptr, ptr %5, align 8, !tbaa !19
  %.not16 = icmp eq ptr %6, null
  br i1 %.not16, label %16, label %7

7:                                                ; preds = %4
  %8 = getelementptr inbounds nuw i8, ptr %3, i64 128
  %9 = load i32, ptr %8, align 8, !tbaa !21
  %.not17 = icmp eq i32 %9, 0
  br i1 %.not17, label %16, label %10

10:                                               ; preds = %7
  %11 = getelementptr inbounds nuw i8, ptr %3, i64 136
  %12 = load i64, ptr %11, align 8, !tbaa !22
  %13 = tail call noalias ptr @CRYPTO_memdup(ptr noundef nonnull %6, i64 noundef %12, ptr noundef nonnull @.str.1, i32 noundef 77) #4
  store ptr %13, ptr %5, align 8, !tbaa !19
  %14 = icmp eq ptr %13, null
  br i1 %14, label %15, label %16

15:                                               ; preds = %10
  tail call void @CRYPTO_free(ptr noundef nonnull %3, ptr noundef nonnull @.str.1, i32 noundef 79) #4
  br label %16

16:                                               ; preds = %2, %4, %7, %15, %10, %1
  %.0 = phi ptr [ null, %15 ], [ %3, %10 ], [ %3, %7 ], [ %3, %4 ], [ null, %2 ], [ null, %1 ]
  ret ptr %.0
}